target datalayout = "e-m:e-p270:32:32-p271:32:32-p272:64:64-i64:64-i128:128-f80:128-n8:16:32:64-S128"
target triple = "x86_64-pc-linux-gnu"

%struct.qemu_plugin_u64 = type { ptr, i64 }
%struct.InsnExecCount = type { ptr, i32, %struct.qemu_plugin_u64, ptr }

; Function Attrs: nounwind sspstrong uwtable
define internal i32 @cmp_exec_count(ptr noundef %0, ptr noundef %1) #0 {
  %3 = alloca ptr, align 8
  %4 = alloca ptr, align 8
  %5 = alloca ptr, align 8
  %6 = alloca ptr, align 8
  %7 = alloca i64, align 8
  %8 = alloca i64, align 8
  store ptr %0, ptr %3, align 8
  store ptr %1, ptr %4, align 8
  call void @llvm.lifetime.start.p0(i64 8, ptr %5) #13
  %9 = load ptr, ptr %3, align 8
  store ptr %9, ptr %5, align 8
  call void @llvm.lifetime.start.p0(i64 8, ptr %6) #13
  %10 = load ptr, ptr %4, align 8
  store ptr %10, ptr %6, align 8
  call void @llvm.lifetime.start.p0(i64 8, ptr %7) #13
  %11 = load ptr, ptr %5, align 8
  %12 = getelementptr inbounds nuw %struct.InsnExecCount, ptr %11, i32 0, i32 2
  %13 = getelementptr inbounds nuw { ptr, i64 }, ptr %12, i32 0, i32 0
  %14 = load ptr, ptr %13, align 8
  %15 = getelementptr inbounds nuw { ptr, i64 }, ptr %12, i32 0, i32 1
  %16 = load i64, ptr %15, align 8
  %17 = call i64 @qemu_plugin_u64_sum(ptr %14, i64 %16)
  store i64 %17, ptr %7, align 8
  call void @llvm.lifetime.start.p0(i64 8, ptr %8) #13
  %18 = load ptr, ptr %6, align 8
  %19 = getelementptr inbounds nuw %struct.InsnExecCount, ptr %18, i32 0, i32 2
  %20 = getelementptr inbounds nuw { ptr, i64 }, ptr %19, i32 0, i32 0
  %21 = load ptr, ptr %20, align 8
  %22 = getelementptr inbounds nuw { ptr, i64 }, ptr %19, i32 0, i32 1
  %23 = load i64, ptr %22, align 8
  %24 = call i64 @qemu_plugin_u64_sum(ptr %21, i64 %23)
  store i64 %24, ptr %8, align 8
  %25 = load i64, ptr %7, align 8
  %26 = load i64, ptr %8, align 8
  %27 = icmp ugt i64 %25, %26
  %28 = select i1 %27, i32 -1, i32 1
  call void @llvm.lifetime.end.p0(i64 8, ptr %8) #13
  call void @llvm.lifetime.end.p0(i64 8, ptr %7) #13
  call void @llvm.lifetime.end.p0(i64 8, ptr %6) #13
  call void @llvm.lifetime.end.p0(i64 8, ptr %5) #13
  ret i32 %28
}