; Function Attrs: nounwind sspstrong uwtable
define internal range(i32 -1, 2) i32 @cmp_exec_count(ptr noundef readonly captures(none) %0, ptr noundef readonly captures(none) %1) #0 {
  %3 = getelementptr inbounds nuw i8, ptr %0, i64 16
  %4 = load ptr, ptr %3, align 8
  %5 = getelementptr inbounds nuw i8, ptr %0, i64 24
  %6 = load i64, ptr %5, align 8
  %7 = tail call i64 @qemu_plugin_u64_sum(ptr %4, i64 %6) #8
  %8 = getelementptr inbounds nuw i8, ptr %1, i64 16
  %9 = load ptr, ptr %8, align 8
  %10 = getelementptr inbounds nuw i8, ptr %1, i64 24
  %11 = load i64, ptr %10, align 8
  %12 = tail call i64 @qemu_plugin_u64_sum(ptr %9, i64 %11) #8
  %13 = icmp ugt i64 %7, %12
  %14 = select i1 %13, i32 -1, i32 1
  ret i32 %14
}